target datalayout = "e-m:e-p270:32:32-p271:32:32-p272:64:64-i64:64-i128:128-f80:128-n8:16:32:64-S128"
target triple = "x86_64-pc-linux-gnu"

%struct.expert_field = type { i32, i32 }
%struct.ieee80211_tagged_field_data = type { i32, ptr, i8, ptr, ptr }

@ei_ieee80211_tag_length = internal global %struct.expert_field zeroinitializer, align 4
@.str.7735 = private unnamed_addr constant [1 x i8] zeroinitializer, align 1
@.str.7980 = private unnamed_addr constant [2 x i8] c"s\00", align 1
@.str.10003 = private unnamed_addr constant [14 x i8] c" (%u octet%s)\00", align 1
@.str.10268 = private unnamed_addr constant [34 x i8] c"Tag Length %u wrong, must be >= 1\00", align 1

; Function Attrs: null_pointer_is_valid sspstrong uwtable
define internal i32 @ieee80211_tag_rsnx(ptr noundef %0, ptr noundef %1, ptr noundef %2, ptr noundef %3) #1 {
  %5 = alloca i32, align 4
  %6 = alloca ptr, align 8
  %7 = alloca ptr, align 8
  %8 = alloca ptr, align 8
  %9 = alloca ptr, align 8
  %10 = alloca i32, align 4
  %11 = alloca ptr, align 8
  %12 = alloca i32, align 4
  store ptr %0, ptr %6, align 8
  store ptr %1, ptr %7, align 8
  store ptr %2, ptr %8, align 8
  store ptr %3, ptr %9, align 8
  call void @llvm.lifetime.start.p0(i64 4, ptr %10) #19
  %13 = load ptr, ptr %6, align 8
  %14 = call i32 @tvb_reported_length(ptr noundef %13)
  store i32 %14, ptr %10, align 4
  call void @llvm.lifetime.start.p0(i64 8, ptr %11) #19
  %15 = load ptr, ptr %9, align 8
  store ptr %15, ptr %11, align 8
  %16 = load i32, ptr %10, align 4
  %17 = icmp slt i32 %16, 1
  br i1 %17, label %18, label %25

18:                                               ; preds = %4
  %19 = load ptr, ptr %7, align 8
  %20 = load ptr, ptr %11, align 8
  %21 = getelementptr inbounds nuw %struct.ieee80211_tagged_field_data, ptr %20, i32 0, i32 4
  %22 = load ptr, ptr %21, align 8
  %23 = load i32, ptr %10, align 4
  %24 = call ptr (ptr, ptr, ptr, ptr, ...) @expert_add_info_format(ptr noundef %19, ptr noundef %22, ptr noundef @ei_ieee80211_tag_length, ptr noundef @.str.10268, i32 noundef %23)
  store i32 0, ptr %5, align 4
  store i32 1, ptr %12, align 4
  br label %40

25:                                               ; preds = %4
  %26 = load ptr, ptr %11, align 8
  %27 = getelementptr inbounds nuw %struct.ieee80211_tagged_field_data, ptr %26, i32 0, i32 3
  %28 = load ptr, ptr %27, align 8
  %29 = load i32, ptr %10, align 4
  %30 = load i32, ptr %10, align 4
  %31 = icmp eq i32 %30, 1
  %32 = select i1 %31, ptr @.str.7735, ptr @.str.7980
  call void (ptr, ptr, ...) @proto_item_append_text(ptr noundef %28, ptr noundef @.str.10003, i32 noundef %29, ptr noundef %32)
  %33 = load ptr, ptr %6, align 8
  %34 = load ptr, ptr %7, align 8
  %35 = load ptr, ptr %8, align 8
  %36 = load i32, ptr %10, align 4
  %37 = call i32 @dissect_rsnx_ie(ptr noundef %33, ptr noundef %34, ptr noundef %35, i32 noundef %36)
  %38 = load ptr, ptr %6, align 8
  %39 = call i32 @tvb_captured_length(ptr noundef %38)
  store i32 %39, ptr %5, align 4
  store i32 1, ptr %12, align 4
  br label %40

40:                                               ; preds = %25, %18
  call void @llvm.lifetime.end.p0(i64 8, ptr %11) #19
  call void @llvm.lifetime.end.p0(i64 4, ptr %10) #19
  %41 = load i32, ptr %5, align 4
  ret i32 %41
}