; Function Attrs: null_pointer_is_valid sspstrong uwtable
define internal i32 @ieee80211_tag_rsnx(ptr noundef %0, ptr noundef %1, ptr noundef %2, ptr noundef readonly captures(none) %3) #2 {
  %5 = tail call i32 @tvb_reported_length(ptr noundef %0)
  %6 = icmp slt i32 %5, 1
  br i1 %6, label %7, label %11

7:                                                ; preds = %4
  %8 = getelementptr inbounds nuw i8, ptr %3, i64 32
  %9 = load ptr, ptr %8, align 8
  %10 = tail call ptr (ptr, ptr, ptr, ptr, ...) @expert_add_info_format(ptr noundef %1, ptr noundef %9, ptr noundef nonnull @ei_ieee80211_tag_length, ptr noundef nonnull @.str.10268, i32 noundef %5)
  br label %18

11:                                               ; preds = %4
  %12 = getelementptr inbounds nuw i8, ptr %3, i64 24
  %13 = load ptr, ptr %12, align 8
  %14 = icmp eq i32 %5, 1
  %15 = select i1 %14, ptr @.str.7735, ptr @.str.7980
  tail call void (ptr, ptr, ...) @proto_item_append_text(ptr noundef %13, ptr noundef nonnull @.str.10003, i32 noundef %5, ptr noundef nonnull %15)
  %16 = tail call fastcc i32 @dissect_rsnx_ie(ptr noundef %0, ptr noundef %2, i32 noundef %5)
  %17 = tail call i32 @tvb_captured_length(ptr noundef %0)
  br label %18

18:                                               ; preds = %11, %7
  %.0 = phi i32 [ 0, %7 ], [ %17, %11 ]
  ret i32 %.0
}